; Function Attrs: mustprogress nounwind uwtable
define void @_ZN3g2o12ScopedTictocD2Ev(ptr noundef nonnull readonly align 8 captures(address) dereferenceable(32) %0) unnamed_addr #2 align 2 personality ptr @__gxx_personality_v0 {
  %2 = load ptr, ptr %0, align 8, !tbaa !31
  %3 = invoke noundef double @_ZN3g2o6tictocEPKc(ptr noundef %2)
          to label %4 unwind label %13

4:                                                ; preds = %1
  %5 = load ptr, ptr %0, align 8, !tbaa !31
  %6 = getelementptr inbounds nuw i8, ptr %0, i64 16
  %7 = icmp eq ptr %5, %6
  br i1 %7, label %_ZNKSt7__cxx1112basic_stringIcSt11char_traitsIcESaIcEE11_M_is_localEv.exit.thread.i.i, label %_ZNKSt7__cxx1112basic_stringIcSt11char_traitsIcESaIcEE11_M_is_localEv.exit.i.i

_ZNKSt7__cxx1112basic_stringIcSt11char_traitsIcESaIcEE11_M_is_localEv.exit.thread.i.i: ; preds = %4
  %8 = getelementptr inbounds nuw i8, ptr %0, i64 8
  %9 = load i64, ptr %8, align 8, !tbaa !34
  %10 = icmp ult i64 %9, 16
  tail call void @llvm.assume(i1 %10)
  br label %_ZNSt7__cxx1112basic_stringIcSt11char_traitsIcESaIcEED2Ev.exit

_ZNKSt7__cxx1112basic_stringIcSt11char_traitsIcESaIcEE11_M_is_localEv.exit.i.i: ; preds = %4
  %11 = load i64, ptr %6, align 8, !tbaa !33
  %12 = add i64 %11, 1
  tail call void @_ZdlPvm(ptr noundef %5, i64 noundef %12) #25
  br label %_ZNSt7__cxx1112basic_stringIcSt11char_traitsIcESaIcEED2Ev.exit

_ZNSt7__cxx1112basic_stringIcSt11char_traitsIcESaIcEED2Ev.exit: ; preds = %_ZNKSt7__cxx1112basic_stringIcSt11char_traitsIcESaIcEE11_M_is_localEv.exit.thread.i.i, %_ZNKSt7__cxx1112basic_stringIcSt11char_traitsIcESaIcEE11_M_is_localEv.exit.i.i
  ret void

13:                                               ; preds = %1
  %14 = landingpad { ptr, i32 }
          catch ptr null
  %15 = extractvalue { ptr, i32 } %14, 0
  tail call void @__clang_call_terminate(ptr %15) #28
  unreachable
}